ccopy_reg
_reconstructor
p0
(cdedupe.datamodel
DataModel
p1
c__builtin__
object
p2
Ntp3
Rp4
(dp5
S'primary_fields'
p6
(lp7
g0
(cdedupe.variables.string
StringType
p8
g2
Ntp9
Rp10
(dp11
S'predicates'
p12
(lp13
g0
(cdedupe.predicates
StringPredicate
p14
g2
Ntp15
Rp16
(dp17
S'_cached_hash'
p18
I-869788345
sS'__name__'
p19
S'(wholeFieldPredicate, Site name)'
p20
sS'func'
p21
cdedupe.predicates
wholeFieldPredicate
p22
sS'field'
p23
S'Site name'
p24
sbag0
(g14
g2
Ntp25
Rp26
(dp27
g18
I823437433
sg19
S'(firstTokenPredicate, Site name)'
p28
sg21
cdedupe.predicates
firstTokenPredicate
p29
sg23
g24
sbag0
(g14
g2
Ntp30
Rp31
(dp32
g18
I715077028
sg19
S'(commonIntegerPredicate, Site name)'
p33
sg21
cdedupe.predicates
commonIntegerPredicate
p34
sg23
g24
sbag0
(g14
g2
Ntp35
Rp36
(dp37
g18
I2088240277
sg19
S'(nearIntegersPredicate, Site name)'
p38
sg21
cdedupe.predicates
nearIntegersPredicate
p39
sg23
g24
sbag0
(g14
g2
Ntp40
Rp41
(dp42
g18
I-407144756
sg19
S'(firstIntegerPredicate, Site name)'
p43
sg21
cdedupe.predicates
firstIntegerPredicate
p44
sg23
g24
sbag0
(g14
g2
Ntp45
Rp46
(dp47
g18
I19487663
sg19
S'(alphaNumericPredicate, Site name)'
p48
sg21
cdedupe.predicates
alphaNumericPredicate
p49
sg23
g24
sbag0
(g14
g2
Ntp50
Rp51
(dp52
g18
I-924906608
sg19
S'(sameThreeCharStartPredicate, Site name)'
p53
sg21
cdedupe.predicates
sameThreeCharStartPredicate
p54
sg23
g24
sbag0
(g14
g2
Ntp55
Rp56
(dp57
g18
I-1553319705
sg19
S'(sameFiveCharStartPredicate, Site name)'
p58
sg21
cdedupe.predicates
sameFiveCharStartPredicate
p59
sg23
g24
sbag0
(g14
g2
Ntp60
Rp61
(dp62
g18
I-562100089
sg19
S'(sameSevenCharStartPredicate, Site name)'
p63
sg21
cdedupe.predicates
sameSevenCharStartPredicate
p64
sg23
g24
sbag0
(g14
g2
Ntp65
Rp66
(dp67
g18
I-1000481556
sg19
S'(commonTwoTokens, Site name)'
p68
sg21
cdedupe.predicates
commonTwoTokens
p69
sg23
g24
sbag0
(g14
g2
Ntp70
Rp71
(dp72
g18
I379284008
sg19
S'(commonThreeTokens, Site name)'
p73
sg21
cdedupe.predicates
commonThreeTokens
p74
sg23
g24
sbag0
(g14
g2
Ntp75
Rp76
(dp77
g18
I394284785
sg19
S'(fingerprint, Site name)'
p78
sg21
cdedupe.predicates
fingerprint
p79
sg23
g24
sbag0
(g14
g2
Ntp80
Rp81
(dp82
g18
I-1794990607
sg19
S'(oneGramFingerprint, Site name)'
p83
sg21
cdedupe.predicates
oneGramFingerprint
p84
sg23
g24
sbag0
(g14
g2
Ntp85
Rp86
(dp87
g18
I333556379
sg19
S'(twoGramFingerprint, Site name)'
p88
sg21
cdedupe.predicates
twoGramFingerprint
p89
sg23
g24
sbag0
(g14
g2
Ntp90
Rp91
(dp92
g18
I1108699137
sg19
S'(sortedAcronym, Site name)'
p93
sg21
cdedupe.predicates
sortedAcronym
p94
sg23
g24
sbag0
(g14
g2
Ntp95
Rp96
(dp97
g18
I456913044
sg19
S'(commonFourGram, Site name)'
p98
sg21
cdedupe.predicates
commonFourGram
p99
sg23
g24
sbag0
(g14
g2
Ntp100
Rp101
(dp102
g18
I-1747958125
sg19
S'(commonSixGram, Site name)'
p103
sg21
cdedupe.predicates
commonSixGram
p104
sg23
g24
sbag0
(g14
g2
Ntp105
Rp106
(dp107
g18
I-600619399
sg19
S'(tokenFieldPredicate, Site name)'
p108
sg21
cdedupe.predicates
tokenFieldPredicate
p109
sg23
g24
sbag0
(g14
g2
Ntp110
Rp111
(dp112
g18
I-699548977
sg19
S'(suffixArray, Site name)'
p113
sg21
cdedupe.predicates
suffixArray
p114
sg23
g24
sbag0
(g14
g2
Ntp115
Rp116
(dp117
g18
I-1111393783
sg19
S'(doubleMetaphone, Site name)'
p118
sg21
cdedupe.predicates
doubleMetaphone
p119
sg23
g24
sbag0
(g14
g2
Ntp120
Rp121
(dp122
g18
I-369615322
sg19
S'(metaphoneToken, Site name)'
p123
sg21
cdedupe.predicates
metaphoneToken
p124
sg23
g24
sbag0
(cdedupe.predicates
TfidfNGramCanopyPredicate
p125
g2
Ntp126
Rp127
(dp128
S'threshold'
p129
F0.2
sg19
S'(0.2, Site name)'
p130
sg23
g24
sbag0
(g125
g2
Ntp131
Rp132
(dp133
g129
F0.4
sg19
S'(0.4, Site name)'
p134
sg23
g24
sbag0
(g125
g2
Ntp135
Rp136
(dp137
g129
F0.6
sg19
S'(0.6, Site name)'
p138
sg23
g24
sbag0
(g125
g2
Ntp139
Rp140
(dp141
g129
F0.8
sg19
S'(0.8, Site name)'
p142
sg23
g24
sbag0
(cdedupe.predicates
TfidfNGramSearchPredicate
p143
g2
Ntp144
Rp145
(dp146
g129
F0.2
sg19
S'(0.2, Site name)'
p147
sg23
g24
sbag0
(g143
g2
Ntp148
Rp149
(dp150
g129
F0.4
sg19
S'(0.4, Site name)'
p151
sg23
g24
sbag0
(g143
g2
Ntp152
Rp153
(dp154
g129
F0.6
sg19
S'(0.6, Site name)'
p155
sg23
g24
sbag0
(g143
g2
Ntp156
Rp157
(dp158
g129
F0.8
sg19
S'(0.8, Site name)'
p159
sg23
g24
sbag0
(cdedupe.predicates
TfidfTextCanopyPredicate
p160
g2
Ntp161
Rp162
(dp163
g129
F0.2
sg19
S'(0.2, Site name)'
p164
sg23
g24
sbag0
(g160
g2
Ntp165
Rp166
(dp167
g129
F0.4
sg19
S'(0.4, Site name)'
p168
sg23
g24
sbag0
(g160
g2
Ntp169
Rp170
(dp171
g129
F0.6
sg19
S'(0.6, Site name)'
p172
sg23
g24
sbag0
(g160
g2
Ntp173
Rp174
(dp175
g129
F0.8
sg19
S'(0.8, Site name)'
p176
sg23
g24
sbag0
(cdedupe.predicates
TfidfTextSearchPredicate
p177
g2
Ntp178
Rp179
(dp180
g129
F0.2
sg19
S'(0.2, Site name)'
p181
sg23
g24
sbag0
(g177
g2
Ntp182
Rp183
(dp184
g129
F0.4
sg19
S'(0.4, Site name)'
p185
sg23
g24
sbag0
(g177
g2
Ntp186
Rp187
(dp188
g129
F0.6
sg19
S'(0.6, Site name)'
p189
sg23
g24
sbag0
(g177
g2
Ntp190
Rp191
(dp192
g129
F0.8
sg19
S'(0.8, Site name)'
p193
sg23
g24
sbag0
(cdedupe.predicates
LevenshteinCanopyPredicate
p194
g2
Ntp195
Rp196
(dp197
g129
I1
sg19
S'(1, Site name)'
p198
sg23
g24
sbag0
(g194
g2
Ntp199
Rp200
(dp201
g129
I2
sg19
S'(2, Site name)'
p202
sg23
g24
sbag0
(g194
g2
Ntp203
Rp204
(dp205
g129
I3
sg19
S'(3, Site name)'
p206
sg23
g24
sbag0
(g194
g2
Ntp207
Rp208
(dp209
g129
I4
sg19
S'(4, Site name)'
p210
sg23
g24
sbag0
(cdedupe.predicates
LevenshteinSearchPredicate
p211
g2
Ntp212
Rp213
(dp214
g129
I1
sg19
S'(1, Site name)'
p215
sg23
g24
sbag0
(g211
g2
Ntp216
Rp217
(dp218
g129
I2
sg19
S'(2, Site name)'
p219
sg23
g24
sbag0
(g211
g2
Ntp220
Rp221
(dp222
g129
I3
sg19
S'(3, Site name)'
p223
sg23
g24
sbag0
(g211
g2
Ntp224
Rp225
(dp226
g129
I4
sg19
S'(4, Site name)'
p227
sg23
g24
sbasg23
g24
sS'name'
p228
S'(Site name: String)'
p229
sS'has_missing'
p230
I00
sS'comparator'
p231
caffinegap.affinegap
normalizedAffineGapDistance
p232
sbag0
(g8
g2
Ntp233
Rp234
(dp235
g12
(lp236
g0
(g14
g2
Ntp237
Rp238
(dp239
g18
I-1749210285
sg19
S'(wholeFieldPredicate, Address)'
p240
sg21
g22
sg23
S'Address'
p241
sbag0
(g14
g2
Ntp242
Rp243
(dp244
g18
I-1911416731
sg19
S'(firstTokenPredicate, Address)'
p245
sg21
g29
sg23
g241
sbag0
(g14
g2
Ntp246
Rp247
(dp248
g18
I871804688
sg19
S'(commonIntegerPredicate, Address)'
p249
sg21
g34
sg23
g241
sbag0
(g14
g2
Ntp250
Rp251
(dp252
g18
I-1614965443
sg19
S'(nearIntegersPredicate, Address)'
p253
sg21
g39
sg23
g241
sbag0
(g14
g2
Ntp254
Rp255
(dp256
g18
I-2021577116
sg19
S'(firstIntegerPredicate, Address)'
p257
sg21
g44
sg23
g241
sbag0
(g14
g2
Ntp258
Rp259
(dp260
g18
I678469807
sg19
S'(alphaNumericPredicate, Address)'
p261
sg21
g49
sg23
g241
sbag0
(g14
g2
Ntp262
Rp263
(dp264
g18
I210269724
sg19
S'(sameThreeCharStartPredicate, Address)'
p265
sg21
g54
sg23
g241
sbag0
(g14
g2
Ntp266
Rp267
(dp268
g18
I637663747
sg19
S'(sameFiveCharStartPredicate, Address)'
p269
sg21
g59
sg23
g241
sbag0
(g14
g2
Ntp270
Rp271
(dp272
g18
I1266925539
sg19
S'(sameSevenCharStartPredicate, Address)'
p273
sg21
g64
sg23
g241
sbag0
(g14
g2
Ntp274
Rp275
(dp276
g18
I-81859464
sg19
S'(commonTwoTokens, Address)'
p277
sg21
g69
sg23
g241
sbag0
(g14
g2
Ntp278
Rp279
(dp280
g18
I342039744
sg19
S'(commonThreeTokens, Address)'
p281
sg21
g74
sg23
g241
sbag0
(g14
g2
Ntp282
Rp283
(dp284
g18
I-1063153891
sg19
S'(fingerprint, Address)'
p285
sg21
g79
sg23
g241
sbag0
(g14
g2
Ntp286
Rp287
(dp288
g18
I-1961466499
sg19
S'(oneGramFingerprint, Address)'
p289
sg21
g84
sg23
g241
sbag0
(g14
g2
Ntp290
Rp291
(dp292
g18
I2026811647
sg19
S'(twoGramFingerprint, Address)'
p293
sg21
g89
sg23
g241
sbag0
(g14
g2
Ntp294
Rp295
(dp296
g18
I-1349578967
sg19
S'(sortedAcronym, Address)'
p297
sg21
g94
sg23
g241
sbag0
(g14
g2
Ntp298
Rp299
(dp300
g18
I602906800
sg19
S'(commonFourGram, Address)'
p301
sg21
g99
sg23
g241
sbag0
(g14
g2
Ntp302
Rp303
(dp304
g18
I-1793997133
sg19
S'(commonSixGram, Address)'
p305
sg21
g104
sg23
g241
sbag0
(g14
g2
Ntp306
Rp307
(dp308
g18
I1113736805
sg19
S'(tokenFieldPredicate, Address)'
p309
sg21
g109
sg23
g241
sbag0
(g14
g2
Ntp310
Rp311
(dp312
g18
I-1418540053
sg19
S'(suffixArray, Address)'
p313
sg21
g114
sg23
g241
sbag0
(g14
g2
Ntp314
Rp315
(dp316
g18
I-532366627
sg19
S'(doubleMetaphone, Address)'
p317
sg21
g119
sg23
g241
sbag0
(g14
g2
Ntp318
Rp319
(dp320
g18
I325889354
sg19
S'(metaphoneToken, Address)'
p321
sg21
g124
sg23
g241
sbag0
(g125
g2
Ntp322
Rp323
(dp324
g129
F0.2
sg19
S'(0.2, Address)'
p325
sg23
g241
sbag0
(g125
g2
Ntp326
Rp327
(dp328
g129
F0.4
sg19
S'(0.4, Address)'
p329
sg23
g241
sbag0
(g125
g2
Ntp330
Rp331
(dp332
g129
F0.6
sg19
S'(0.6, Address)'
p333
sg23
g241
sbag0
(g125
g2
Ntp334
Rp335
(dp336
g129
F0.8
sg19
S'(0.8, Address)'
p337
sg23
g241
sbag0
(g143
g2
Ntp338
Rp339
(dp340
g129
F0.2
sg19
S'(0.2, Address)'
p341
sg23
g241
sbag0
(g143
g2
Ntp342
Rp343
(dp344
g129
F0.4
sg19
S'(0.4, Address)'
p345
sg23
g241
sbag0
(g143
g2
Ntp346
Rp347
(dp348
g129
F0.6
sg19
S'(0.6, Address)'
p349
sg23
g241
sbag0
(g143
g2
Ntp350
Rp351
(dp352
g129
F0.8
sg19
S'(0.8, Address)'
p353
sg23
g241
sbag0
(g160
g2
Ntp354
Rp355
(dp356
g129
F0.2
sg19
S'(0.2, Address)'
p357
sg23
g241
sbag0
(g160
g2
Ntp358
Rp359
(dp360
g129
F0.4
sg19
S'(0.4, Address)'
p361
sg23
g241
sbag0
(g160
g2
Ntp362
Rp363
(dp364
g129
F0.6
sg19
S'(0.6, Address)'
p365
sg23
g241
sbag0
(g160
g2
Ntp366
Rp367
(dp368
g129
F0.8
sg19
S'(0.8, Address)'
p369
sg23
g241
sbag0
(g177
g2
Ntp370
Rp371
(dp372
g129
F0.2
sg19
S'(0.2, Address)'
p373
sg23
g241
sbag0
(g177
g2
Ntp374
Rp375
(dp376
g129
F0.4
sg19
S'(0.4, Address)'
p377
sg23
g241
sbag0
(g177
g2
Ntp378
Rp379
(dp380
g129
F0.6
sg19
S'(0.6, Address)'
p381
sg23
g241
sbag0
(g177
g2
Ntp382
Rp383
(dp384
g129
F0.8
sg19
S'(0.8, Address)'
p385
sg23
g241
sbag0
(g194
g2
Ntp386
Rp387
(dp388
g129
I1
sg19
S'(1, Address)'
p389
sg23
g241
sbag0
(g194
g2
Ntp390
Rp391
(dp392
g129
I2
sg19
S'(2, Address)'
p393
sg23
g241
sbag0
(g194
g2
Ntp394
Rp395
(dp396
g129
I3
sg19
S'(3, Address)'
p397
sg23
g241
sbag0
(g194
g2
Ntp398
Rp399
(dp400
g129
I4
sg19
S'(4, Address)'
p401
sg23
g241
sbag0
(g211
g2
Ntp402
Rp403
(dp404
g129
I1
sg19
S'(1, Address)'
p405
sg23
g241
sbag0
(g211
g2
Ntp406
Rp407
(dp408
g129
I2
sg19
S'(2, Address)'
p409
sg23
g241
sbag0
(g211
g2
Ntp410
Rp411
(dp412
g129
I3
sg19
S'(3, Address)'
p413
sg23
g241
sbag0
(g211
g2
Ntp414
Rp415
(dp416
g129
I4
sg19
S'(4, Address)'
p417
sg23
g241
sbasg23
g241
sg228
S'(Address: String)'
p418
sg230
I00
sg231
g232
sbag0
(cdedupe.variables.exact
ExactType
p419
g2
Ntp420
Rp421
(dp422
g12
(lp423
g0
(cdedupe.predicates
SimplePredicate
p424
g2
Ntp425
Rp426
(dp427
g18
I-2013814884
sg19
S'(wholeFieldPredicate, Zip)'
p428
sg21
g22
sg23
S'Zip'
p429
sbag0
(cdedupe.predicates
ExistsPredicate
p430
g2
Ntp431
Rp432
(dp433
g18
I1906851099
sg19
S'(Exists, Zip)'
p434
sg23
g429
sbasg23
g429
sg228
S'(Zip: Exact)'
p435
sg230
I01
sbag0
(g8
g2
Ntp436
Rp437
(dp438
g12
(lp439
g0
(g14
g2
Ntp440
Rp441
(dp442
g18
I1894849777
sg19
S'(wholeFieldPredicate, Phone)'
p443
sg21
g22
sg23
S'Phone'
p444
sbag0
(g14
g2
Ntp445
Rp446
(dp447
g18
I-1970341909
sg19
S'(firstTokenPredicate, Phone)'
p448
sg21
g29
sg23
g444
sbag0
(g14
g2
Ntp449
Rp450
(dp451
g18
I1234830494
sg19
S'(commonIntegerPredicate, Phone)'
p452
sg21
g34
sg23
g444
sbag0
(g14
g2
Ntp453
Rp454
(dp455
g18
I-160498237
sg19
S'(nearIntegersPredicate, Phone)'
p456
sg21
g39
sg23
g444
sbag0
(g14
g2
Ntp457
Rp458
(dp459
g18
I-1580568674
sg19
S'(firstIntegerPredicate, Phone)'
p460
sg21
g44
sg23
g444
sbag0
(g14
g2
Ntp461
Rp462
(dp463
g18
I-1308690827
sg19
S'(alphaNumericPredicate, Phone)'
p464
sg21
g49
sg23
g444
sbag0
(g14
g2
Ntp465
Rp466
(dp467
g18
I-2076236954
sg19
S'(sameThreeCharStartPredicate, Phone)'
p468
sg21
g54
sg23
g444
sbag0
(g14
g2
Ntp469
Rp470
(dp471
g18
I1031395365
sg19
S'(sameFiveCharStartPredicate, Phone)'
p472
sg21
g59
sg23
g444
sbag0
(g14
g2
Ntp473
Rp474
(dp475
g18
I-939313519
sg19
S'(sameSevenCharStartPredicate, Phone)'
p476
sg21
g64
sg23
g444
sbag0
(g14
g2
Ntp477
Rp478
(dp479
g18
I153514594
sg19
S'(commonTwoTokens, Phone)'
p480
sg21
g69
sg23
g444
sbag0
(g14
g2
Ntp481
Rp482
(dp483
g18
I-888534894
sg19
S'(commonThreeTokens, Phone)'
p484
sg21
g74
sg23
g444
sbag0
(g14
g2
Ntp485
Rp486
(dp487
g18
I425447507
sg19
S'(fingerprint, Phone)'
p488
sg21
g79
sg23
g444
sbag0
(g14
g2
Ntp489
Rp490
(dp491
g18
I-2103123097
sg19
S'(oneGramFingerprint, Phone)'
p492
sg21
g84
sg23
g444
sbag0
(g14
g2
Ntp493
Rp494
(dp495
g18
I572459281
sg19
S'(twoGramFingerprint, Phone)'
p496
sg21
g89
sg23
g444
sbag0
(g14
g2
Ntp497
Rp498
(dp499
g18
I1605354279
sg19
S'(sortedAcronym, Phone)'
p500
sg21
g94
sg23
g444
sbag0
(g14
g2
Ntp501
Rp502
(dp503
g18
I1325541630
sg19
S'(commonFourGram, Phone)'
p504
sg21
g99
sg23
g444
sbag0
(g14
g2
Ntp505
Rp506
(dp507
g18
I522166001
sg19
S'(commonSixGram, Phone)'
p508
sg21
g104
sg23
g444
sbag0
(g14
g2
Ntp509
Rp510
(dp511
g18
I1848653291
sg19
S'(tokenFieldPredicate, Phone)'
p512
sg21
g109
sg23
g444
sbag0
(g14
g2
Ntp513
Rp514
(dp515
g18
I1326219401
sg19
S'(suffixArray, Phone)'
p516
sg21
g114
sg23
g444
sbag0
(g14
g2
Ntp517
Rp518
(dp519
g18
I-437142549
sg19
S'(doubleMetaphone, Phone)'
p520
sg21
g119
sg23
g444
sbag0
(g14
g2
Ntp521
Rp522
(dp523
g18
I1831672392
sg19
S'(metaphoneToken, Phone)'
p524
sg21
g124
sg23
g444
sbag0
(g125
g2
Ntp525
Rp526
(dp527
g129
F0.2
sg19
S'(0.2, Phone)'
p528
sg23
g444
sbag0
(g125
g2
Ntp529
Rp530
(dp531
g129
F0.4
sg19
S'(0.4, Phone)'
p532
sg23
g444
sbag0
(g125
g2
Ntp533
Rp534
(dp535
g129
F0.6
sg19
S'(0.6, Phone)'
p536
sg23
g444
sbag0
(g125
g2
Ntp537
Rp538
(dp539
g129
F0.8
sg19
S'(0.8, Phone)'
p540
sg23
g444
sbag0
(g143
g2
Ntp541
Rp542
(dp543
g129
F0.2
sg19
S'(0.2, Phone)'
p544
sg23
g444
sbag0
(g143
g2
Ntp545
Rp546
(dp547
g129
F0.4
sg19
S'(0.4, Phone)'
p548
sg23
g444
sbag0
(g143
g2
Ntp549
Rp550
(dp551
g129
F0.6
sg19
S'(0.6, Phone)'
p552
sg23
g444
sbag0
(g143
g2
Ntp553
Rp554
(dp555
g129
F0.8
sg19
S'(0.8, Phone)'
p556
sg23
g444
sbag0
(g160
g2
Ntp557
Rp558
(dp559
g129
F0.2
sg19
S'(0.2, Phone)'
p560
sg23
g444
sbag0
(g160
g2
Ntp561
Rp562
(dp563
g129
F0.4
sg19
S'(0.4, Phone)'
p564
sg23
g444
sbag0
(g160
g2
Ntp565
Rp566
(dp567
g129
F0.6
sg19
S'(0.6, Phone)'
p568
sg23
g444
sbag0
(g160
g2
Ntp569
Rp570
(dp571
g129
F0.8
sg19
S'(0.8, Phone)'
p572
sg23
g444
sbag0
(g177
g2
Ntp573
Rp574
(dp575
g129
F0.2
sg19
S'(0.2, Phone)'
p576
sg23
g444
sbag0
(g177
g2
Ntp577
Rp578
(dp579
g129
F0.4
sg19
S'(0.4, Phone)'
p580
sg23
g444
sbag0
(g177
g2
Ntp581
Rp582
(dp583
g129
F0.6
sg19
S'(0.6, Phone)'
p584
sg23
g444
sbag0
(g177
g2
Ntp585
Rp586
(dp587
g129
F0.8
sg19
S'(0.8, Phone)'
p588
sg23
g444
sbag0
(g430
g2
Ntp589
Rp590
(dp591
g18
I-1199441986
sg19
S'(Exists, Phone)'
p592
sg23
g444
sbag0
(g194
g2
Ntp593
Rp594
(dp595
g129
I1
sg19
S'(1, Phone)'
p596
sg23
g444
sbag0
(g194
g2
Ntp597
Rp598
(dp599
g129
I2
sg19
S'(2, Phone)'
p600
sg23
g444
sbag0
(g194
g2
Ntp601
Rp602
(dp603
g129
I3
sg19
S'(3, Phone)'
p604
sg23
g444
sbag0
(g194
g2
Ntp605
Rp606
(dp607
g129
I4
sg19
S'(4, Phone)'
p608
sg23
g444
sbag0
(g211
g2
Ntp609
Rp610
(dp611
g129
I1
sg19
S'(1, Phone)'
p612
sg23
g444
sbag0
(g211
g2
Ntp613
Rp614
(dp615
g129
I2
sg19
S'(2, Phone)'
p616
sg23
g444
sbag0
(g211
g2
Ntp617
Rp618
(dp619
g129
I3
sg19
S'(3, Phone)'
p620
sg23
g444
sbag0
(g211
g2
Ntp621
Rp622
(dp623
g129
I4
sg19
S'(4, Phone)'
p624
sg23
g444
sbasg23
g444
sg228
S'(Phone: String)'
p625
sg230
I01
sg231
g232
sbasS'_variables'
p626
(lp627
g10
ag234
ag421
ag437
ag0
(cdedupe.variables.base
MissingDataType
p628
g2
Ntp629
Rp630
(dp631
g228
S'((Zip: Exact): Not Missing)'
p632
sg230
I00
sbag0
(g628
g2
Ntp633
Rp634
(dp635
g228
S'((Phone: String): Not Missing)'
p636
sg230
I00
sbasS'_missing_field_indices'
p637
(lp638
I2
aI3
asS'_derived_start'
p639
I4
sS'_interaction_indices'
p640
(lp641
sb.ccopy_reg
_reconstructor
p0
(crlr.lr
RegularizedLogisticRegression
p1
c__builtin__
object
p2
Ntp3
Rp4
(dp5
S'alpha'
p6
F0.1
sS'bias'
p7
cnumpy.core.multiarray
scalar
p8
(cnumpy
dtype
p9
(S'f8'
p10
I0
I1
tp11
Rp12
(I3
S'<'
p13
NNNI-1
I-1
I0
tp14
bS'Y\xf8x4\xbf\xea$@'
p15
tp16
Rp17
sS'num_cores'
p18
I0
sS'cv'
p19
I3
sS'weights'
p20
cnumpy.core.multiarray
_reconstruct
p21
(cnumpy
ndarray
p22
(I0
tp23
S'b'
p24
tp25
Rp26
(I1
(L6L
tp27
g12
I00
S'X/\xd5y\x80\x93\x00\xc0\xd2\xec\x90\xe8\xfb\xb3\x08\xc0\xf8&\x90\xd4\xe7\x18\x01@JH\x82\xc0|\xef\xf8\xbf\xae\xf5\x00\x81\xda\x9d\xdf\xbfg\xb3\xfb{N\x88\n@'
p28
tp29
bsb.(ccopy_reg
_reconstructor
p0
(cdedupe.predicates
CompoundPredicate
p1
c__builtin__
tuple
p2
(g0
(cdedupe.predicates
StringPredicate
p3
c__builtin__
object
p4
Ntp5
Rp6
(dp7
S'_cached_hash'
p8
I637663747
sS'__name__'
p9
S'(sameFiveCharStartPredicate, Address)'
p10
sS'func'
p11
cdedupe.predicates
sameFiveCharStartPredicate
p12
sS'field'
p13
S'Address'
p14
sbg0
(cdedupe.predicates
TfidfNGramCanopyPredicate
p15
g4
Ntp16
Rp17
(dp18
S'threshold'
p19
F0.4
sg9
S'(0.4, Address)'
p20
sg13
g14
sbtp21
tp22
Rp23
(dp24
S'count'
p25
F6274.893131500001
sbg0
(g1
g2
(g0
(g3
g4
Ntp26
Rp27
(dp28
g8
I-2103123097
sg9
S'(oneGramFingerprint, Phone)'
p29
sg11
cdedupe.predicates
oneGramFingerprint
p30
sg13
S'Phone'
p31
sbg0
(cdedupe.predicates
TfidfTextCanopyPredicate
p32
g4
Ntp33
Rp34
(dp35
g19
F0.6
sg9
S'(0.6, Site name)'
p36
sg13
S'Site name'
p37
sbtp38
tp39
Rp40
(dp41
g25
F5041.6288647500005
sbg0
(g1
g2
(g0
(cdedupe.predicates
LevenshteinCanopyPredicate
p42
g4
Ntp43
Rp44
(dp45
g19
I1
sg9
S'(1, Site name)'
p46
sg13
g37
sbg0
(cdedupe.predicates
SimplePredicate
p47
g4
Ntp48
Rp49
(dp50
g8
I-2013814884
sg9
S'(wholeFieldPredicate, Zip)'
p51
sg11
cdedupe.predicates
wholeFieldPredicate
p52
sg13
S'Zip'
p53
sbtp54
tp55
Rp56
(dp57
g25
F570.6979112500001
sbtp58
.